(ic4_engine
Game
p1
(dp2
S'width'
p3
I5
sS'row_len'
p4
I3
sS'board'
p5
(lp6
(lp7
I-1
aI0
aI-1
aI-1
aI-1
aa(lp8
I-1
aI1
aI-1
aI-1
aI-1
aa(lp9
I-1
aI0
aI-1
aI-1
aI-1
aa(lp10
I-1
aI1
aI-1
aI-1
aI-1
aa(lp11
I-1
aI-1
aI-1
aI-1
aI-1
aasS'winner'
p12
I-1
sS'height'
p13
I5
sb.