(ic4_engine
Game
p1
(dp2
S'width'
p3
I8
sS'row_len'
p4
I3
sS'board'
p5
(lp6
(lp7
I1
aI0
aI-1
aI-1
aI-1
aI-1
aI-1
aI-1
aa(lp8
I-1
aI0
aI-1
aI-1
aI-1
aI-1
aI-1
aI-1
aa(lp9
I-1
aI0
aI-1
aI-1
aI-1
aI-1
aI-1
aI-1
aa(lp10
I-1
aI-1
aI-1
aI-1
aI-1
aI-1
aI-1
aI-1
aa(lp11
I-1
aI-1
aI-1
aI-1
aI-1
aI-1
aI-1
aI-1
aa(lp12
I-1
aI-1
aI-1
aI-1
aI-1
aI-1
aI-1
aI-1
aasS'winner'
p13
I0
sS'height'
p14
I6
sb.